; Function Attrs: mustprogress nounwind uwtable
define dso_local noundef double @_ZNK5vcpkg4Json5Value6numberENS_8LineInfoE(ptr nocapture noundef nonnull readonly align 8 dereferenceable(8) %0, i32 %1, ptr %2) local_unnamed_addr #1 align 2 personality ptr @__gxx_personality_v0 {
  %4 = alloca %"struct.vcpkg::LineInfo", align 8
  %5 = load ptr, ptr %0, align 8
  %.not.i = icmp eq ptr %5, null
  br i1 %.not.i, label %.thread, label %_ZNK5vcpkg4Json5Value4kindEv.exit

.thread:                                          ; preds = %3
  call void @llvm.lifetime.start.p0(i64 16, ptr nonnull %4)
  store i32 %1, ptr %4, align 8
  %6 = getelementptr inbounds i8, ptr %4, i64 8
  store ptr %2, ptr %6, align 8
  br label %_ZNK5vcpkg4Json5Value10is_integerEv.exit.i

_ZNK5vcpkg4Json5Value4kindEv.exit:                ; preds = %3
  %7 = load i32, ptr %5, align 8
  %8 = icmp eq i32 %7, 3
  br i1 %8, label %9, label %12

9:                                                ; preds = %_ZNK5vcpkg4Json5Value4kindEv.exit
  %10 = getelementptr inbounds i8, ptr %5, i64 8
  %11 = load double, ptr %10, align 8
  br label %22

12:                                               ; preds = %_ZNK5vcpkg4Json5Value4kindEv.exit
  call void @llvm.lifetime.start.p0(i64 16, ptr nonnull %4)
  store i32 %1, ptr %4, align 8
  %13 = getelementptr inbounds i8, ptr %4, i64 8
  store ptr %2, ptr %13, align 8
  %14 = icmp eq i32 %7, 2
  br label %_ZNK5vcpkg4Json5Value10is_integerEv.exit.i

_ZNK5vcpkg4Json5Value10is_integerEv.exit.i:       ; preds = %.thread, %12
  %.0.i.i.i = phi i1 [ %14, %12 ], [ false, %.thread ]
  invoke void @_ZN5vcpkg6Checks10check_exitERKNS_8LineInfoEb(ptr noundef nonnull align 8 dereferenceable(16) %4, i1 noundef zeroext %.0.i.i.i)
          to label %_ZNK5vcpkg4Json5Value7integerENS_8LineInfoE.exit unwind label %15

15:                                               ; preds = %_ZNK5vcpkg4Json5Value10is_integerEv.exit.i
  %16 = landingpad { ptr, i32 }
          catch ptr null
  %17 = extractvalue { ptr, i32 } %16, 0
  call void @__clang_call_terminate(ptr %17) #25
  unreachable

_ZNK5vcpkg4Json5Value7integerENS_8LineInfoE.exit: ; preds = %_ZNK5vcpkg4Json5Value10is_integerEv.exit.i
  %18 = load ptr, ptr %0, align 8
  %19 = getelementptr inbounds i8, ptr %18, i64 8
  %20 = load i64, ptr %19, align 8
  call void @llvm.lifetime.end.p0(i64 16, ptr nonnull %4)
  %21 = sitofp i64 %20 to double
  br label %22

22:                                               ; preds = %_ZNK5vcpkg4Json5Value7integerENS_8LineInfoE.exit, %9
  %.0 = phi double [ %11, %9 ], [ %21, %_ZNK5vcpkg4Json5Value7integerENS_8LineInfoE.exit ]
  ret double %.0
}